Certificate:
    Data:
        Version: 3 (0x2)
        Serial Number: 0 (0x0)
        Signature Algorithm: sha256WithRSAEncryption
        Issuer: O=Apache Software Foundation, OU=HttpComponents Project, CN=Test CA/emailAddress=dev@hc.apache.org
        Validity
            Not Before: Oct 20 19:34:55 2024 GMT
            Not After : Sep 26 19:34:55 2124 GMT
        Subject: O=Apache Software Foundation, OU=HttpComponents Project, CN=localhost/emailAddress=dev@hc.apache.org
        Subject Public Key Info:
            Public Key Algorithm: rsaEncryption
                Public-Key: (2048 bit)
                Modulus:
                    00:c9:0d:66:dc:9c:9c:57:43:83:ce:0a:09:d6:58:
                    b3:05:3e:ed:c8:c4:b9:3e:79:66:22:dc:29:9b:a6:
                    8e:cc:22:b6:3d:96:d9:11:78:1c:cd:73:37:7a:5b:
                    a6:91:32:4d:c4:11:ee:d0:97:5d:4e:89:0f:c7:cb:
                    79:40:e4:1e:d2:d7:f8:4f:0f:37:7e:04:71:a9:74:
                    40:e6:17:1c:94:65:f9:13:0d:52:bc:74:fe:6d:e6:
                    ad:f0:07:60:81:e0:7e:b9:8c:52:8b:ca:ec:2f:04:
                    9f:5e:e5:2a:26:70:6d:e9:68:f1:9e:8c:d0:06:2f:
                    50:ee:98:03:d9:ba:82:5b:65:01:80:60:13:09:da:
                    64:be:ae:76:c4:ee:5c:05:fd:5d:35:fd:7e:91:29:
                    22:5d:f2:18:2f:49:f9:f9:c0:71:a0:85:26:60:09:
                    d6:56:42:29:33:95:5b:e2:d8:02:af:89:02:f6:01:
                    a7:cb:bc:90:bb:20:1e:6d:ee:9f:c0:ae:24:df:be:
                    30:5c:89:5d:c1:a4:21:a1:06:89:75:0a:16:f3:34:
                    ef:fc:a3:a6:7d:9c:6a:97:28:59:1e:16:98:79:a1:
                    7e:b3:0a:63:7e:2d:4d:6c:eb:40:c6:c9:ea:63:01:
                    02:78:4a:4a:eb:98:8c:61:d7:d6:df:9a:cf:a4:8c:
                    32:21
                Exponent: 65537 (0x10001)
        X509v3 extensions:
            X509v3 Basic Constraints: 
                CA:FALSE
            Netscape Comment: 
                OpenSSL Generated Certificate
            X509v3 Subject Key Identifier: 
                76:DC:5B:ED:CF:E7:5A:EC:05:2C:35:5B:42:25:EA:45:E8:18:AB:CE
            X509v3 Authority Key Identifier: 
                03:E4:E7:DA:0F:64:DB:13:1E:BD:85:AB:76:BC:29:CA:2F:A7:C7:4B
            X509v3 Subject Alternative Name: 
                DNS:localhost
    Signature Algorithm: sha256WithRSAEncryption
    Signature Value:
        09:f8:61:1a:59:c2:a4:28:f2:f0:b1:0a:41:59:14:f5:3a:32:
        f0:19:bc:d8:c0:21:94:d0:6e:e7:c3:7b:df:0f:52:b1:d6:b8:
        78:5d:c5:d7:f4:f1:3d:85:ea:95:80:5c:eb:55:e0:8b:d3:02:
        ae:e5:50:85:0d:7e:98:fa:0d:1d:48:ff:74:ba:3b:c8:97:f9:
        c6:bb:ce:f1:1d:9e:80:f2:45:6c:14:e2:85:b0:5b:ea:9b:20:
        cf:d0:25:20:5d:41:51:c2:cc:a8:ff:b1:23:26:cd:c5:52:64:
        5b:a1:2d:a6:27:e9:28:3f:09:d0:d9:b1:49:1c:1d:ad:a3:06:
        3d:09:f0:dd:e6:fc:7c:83:b5:a5:e9:d7:99:9a:17:8e:e7:d4:
        18:60:cf:14:56:6d:01:6b:9a:cf:9d:cd:1b:50:78:06:d9:4e:
        f2:d8:38:16:6a:5f:8b:07:44:ae:e9:92:5f:54:7c:9e:05:18:
        5d:e1:e5:dd:83:88:8e:6c:02:32:a9:56:0d:55:06:2e:dc:27:
        96:56:ed:65:59:c8:17:ac:18:f5:dd:65:b0:43:c3:d0:d1:6d:
        ca:2c:06:5e:9a:1d:33:33:57:da:aa:17:4e:a7:b2:63:93:45:
        ef:e6:b4:ca:93:d5:e8:e2:31:64:c8:26:7b:df:90:d8:b0:36:
        48:3b:df:b1
-----BEGIN CERTIFICATE-----
MIIEBjCCAu6gAwIBAgIBADANBgkqhkiG9w0BAQsFADB6MSMwIQYDVQQKDBpBcGFj
aGUgU29mdHdhcmUgRm91bmRhdGlvbjEfMB0GA1UECwwWSHR0cENvbXBvbmVudHMg
UHJvamVjdDEQMA4GA1UEAwwHVGVzdCBDQTEgMB4GCSqGSIb3DQEJARYRZGV2QGhj
LmFwYWNoZS5vcmcwIBcNMjQxMDIwMTkzNDU1WhgPMjEyNDA5MjYxOTM0NTVaMHwx
IzAhBgNVBAoMGkFwYWNoZSBTb2Z0d2FyZSBGb3VuZGF0aW9uMR8wHQYDVQQLDBZI
dHRwQ29tcG9uZW50cyBQcm9qZWN0MRIwEAYDVQQDDAlsb2NhbGhvc3QxIDAeBgkq
hkiG9w0BCQEWEWRldkBoYy5hcGFjaGUub3JnMIIBIjANBgkqhkiG9w0BAQEFAAOC
AQ8AMIIBCgKCAQEAyQ1m3JycV0ODzgoJ1lizBT7tyMS5PnlmItwpm6aOzCK2PZbZ
EXgczXM3elumkTJNxBHu0JddTokPx8t5QOQe0tf4Tw83fgRxqXRA5hcclGX5Ew1S
vHT+beat8AdggeB+uYxSi8rsLwSfXuUqJnBt6WjxnozQBi9Q7pgD2bqCW2UBgGAT
Cdpkvq52xO5cBf1dNf1+kSkiXfIYL0n5+cBxoIUmYAnWVkIpM5Vb4tgCr4kC9gGn
y7yQuyAebe6fwK4k374wXIldwaQhoQaJdQoW8zTv/KOmfZxqlyhZHhaYeaF+swpj
fi1NbOtAxsnqYwECeEpK65iMYdfW35rPpIwyIQIDAQABo4GSMIGPMAkGA1UdEwQC
MAAwLAYJYIZIAYb4QgENBB8WHU9wZW5TU0wgR2VuZXJhdGVkIENlcnRpZmljYXRl
MB0GA1UdDgQWBBR23Fvtz+da7AUsNVtCJepF6BirzjAfBgNVHSMEGDAWgBQD5Ofa
D2TbEx69hat2vCnKL6fHSzAUBgNVHREEDTALgglsb2NhbGhvc3QwDQYJKoZIhvcN
AQELBQADggEBAAn4YRpZwqQo8vCxCkFZFPU6MvAZvNjAIZTQbufDe98PUrHWuHhd
xdf08T2F6pWAXOtV4IvTAq7lUIUNfpj6DR1I/3S6O8iX+ca7zvEdnoDyRWwU4oWw
W+qbIM/QJSBdQVHCzKj/sSMmzcVSZFuhLaYn6Sg/CdDZsUkcHa2jBj0J8N3m/HyD
taXp15maF47n1BhgzxRWbQFrms+dzRtQeAbZTvLYOBZqX4sHRK7pkl9UfJ4FGF3h
5d2DiI5sAjKpVg1VBi7cJ5ZW7WVZyBesGPXdZbBDw9DRbcosBl6aHTMzV9qqF06n
smOTRe/mtMqT1ejiMWTIJnvfkNiwNkg737E=
-----END CERTIFICATE-----
